libaccounts-qt.so.1 libaccounts-qt1 #MINVER#
 _ZN8Accounts11ServiceTypeC1EP14_AgServiceType@Base 1.1
 _ZN8Accounts11ServiceTypeC2EP14_AgServiceType@Base 1.1
 _ZN8Accounts11ServiceTypeD1Ev@Base 1.1
 _ZN8Accounts11ServiceTypeD2Ev@Base 1.1
 _ZN8Accounts14AccountService10beginGroupERK7QString@Base 1.1
 _ZN8Accounts14AccountService11qt_metacallEN11QMetaObject4CallEiPPv@Base 1.1
 _ZN8Accounts14AccountService11qt_metacastEPKc@Base 1.1
 _ZN8Accounts14AccountService16staticMetaObjectE@Base 1.1
 _ZN8Accounts14AccountService5clearEv@Base 1.1
 _ZN8Accounts14AccountService6removeERK7QString@Base 1.1
 _ZN8Accounts14AccountService7changedEv@Base 1.1
 _ZN8Accounts14AccountService7enabledEb@Base 1.1
 _ZN8Accounts14AccountService8endGroupEv@Base 1.1
 _ZN8Accounts14AccountService8setValueEPKcRK8QVariant@Base 1.1
 _ZN8Accounts14AccountService8setValueERK7QStringRK8QVariant@Base 1.1
 _ZN8Accounts14AccountServiceC1EPNS_7AccountEPNS_7ServiceE@Base 1.1
 _ZN8Accounts14AccountServiceC2EPNS_7AccountEPNS_7ServiceE@Base 1.1
 _ZN8Accounts14AccountServiceD0Ev@Base 1.1
 _ZN8Accounts14AccountServiceD1Ev@Base 1.1
 _ZN8Accounts14AccountServiceD2Ev@Base 1.1
 _ZN8Accounts5ErrorC1EPK7_GError@Base 1.1
 _ZN8Accounts5ErrorC2EPK7_GError@Base 1.1
 _ZN8Accounts5ErrorD0Ev@Base 1.1
 _ZN8Accounts5ErrorD1Ev@Base 1.1
 _ZN8Accounts5ErrorD2Ev@Base 1.1
 _ZN8Accounts5Watch11qt_metacallEN11QMetaObject4CallEiPPv@Base 1.1
 _ZN8Accounts5Watch11qt_metacastEPKc@Base 1.1
 _ZN8Accounts5Watch16staticMetaObjectE@Base 1.1
 _ZN8Accounts5Watch6notifyEPKc@Base 1.1
 _ZN8Accounts5Watch7Private17account_notify_cbEP10_AgAccountPKcPS0_@Base 1.1
 _ZN8Accounts5WatchC1EP7QObject@Base 1.1
 _ZN8Accounts5WatchC2EP7QObject@Base 1.1
 _ZN8Accounts5WatchD0Ev@Base 1.1
 _ZN8Accounts5WatchD1Ev@Base 1.1
 _ZN8Accounts5WatchD2Ev@Base 1.1
 _ZN8Accounts7Account10beginGroupERK7QString@Base 1.1
 _ZN8Accounts7Account10setEnabledEb@Base 1.1
 _ZN8Accounts7Account11qt_metacallEN11QMetaObject4CallEiPPv@Base 1.1
 _ZN8Accounts7Account11qt_metacastEPKc@Base 1.1
 _ZN8Accounts7Account12syncAndBlockEv@Base 1.1
 _ZN8Accounts7Account13credentialsIdEv@Base 1.1
 _ZN8Accounts7Account13selectServiceEPKNS_7ServiceE@Base 1.1
 _ZN8Accounts7Account14enabledChangedERK7QStringb@Base 1.1
 _ZN8Accounts7Account14setDisplayNameERK7QString@Base 1.1
 _ZN8Accounts7Account16staticMetaObjectE@Base 1.1
 _ZN8Accounts7Account16verifyWithTokensERK7QString5QListIPKcE@Base 1.1
 _ZN8Accounts7Account18displayNameChangedERK7QString@Base 1.1
 _ZN8Accounts7Account4signERK7QStringPKc@Base 1.1
 _ZN8Accounts7Account4syncEv@Base 1.1
 _ZN8Accounts7Account5clearEv@Base 1.1
 _ZN8Accounts7Account5errorENS_5ErrorE@Base 1.1
 _ZN8Accounts7Account6removeERK7QString@Base 1.1
 _ZN8Accounts7Account6removeEv@Base 1.1
 _ZN8Accounts7Account6syncedEv@Base 1.1
 _ZN8Accounts7Account6verifyERK7QStringPPKc@Base 1.1
 _ZN8Accounts7Account7Private10on_deletedEPS0_@Base 1.1
 _ZN8Accounts7Account7Private10on_enabledEPS0_PKci@Base 1.1
 _ZN8Accounts7Account7Private16account_store_cbEP10_AgAccountPK7_GErrorPS0_@Base 1.1
 _ZN8Accounts7Account7Private23on_display_name_changedEPS0_@Base 1.1
 _ZN8Accounts7Account7accountEv@Base 1.1
 _ZN8Accounts7Account7removedEv@Base 1.1
 _ZN8Accounts7Account8endGroupEv@Base 1.1
 _ZN8Accounts7Account8setValueERK7QStringRK8QVariant@Base 1.1
 _ZN8Accounts7Account8watchKeyERK7QString@Base 1.1
 _ZN8Accounts7AccountC1EP10_AgAccountP7QObject@Base 1.1
 _ZN8Accounts7AccountC2EP10_AgAccountP7QObject@Base 1.1
 _ZN8Accounts7AccountD0Ev@Base 1.1
 _ZN8Accounts7AccountD1Ev@Base 1.1
 _ZN8Accounts7AccountD2Ev@Base 1.1
 _ZN8Accounts7Manager10setTimeoutEj@Base 1.1
 _ZN8Accounts7Manager11qt_metacallEN11QMetaObject4CallEiPPv@Base 1.1
 _ZN8Accounts7Manager11qt_metacastEPKc@Base 1.1
 _ZN8Accounts7Manager12enabledEventEj@Base 1.1
 _ZN8Accounts7Manager13createAccountERK7QString@Base 1.1
 _ZN8Accounts7Manager14accountCreatedEj@Base 1.1
 _ZN8Accounts7Manager14accountRemovedEj@Base 1.1
 _ZN8Accounts7Manager14accountUpdatedEj@Base 1.1
 _ZN8Accounts7Manager16staticMetaObjectE@Base 1.1
 _ZN8Accounts7Manager17setAbortOnTimeoutEb@Base 1.1
 _ZN8Accounts7Manager7Private16on_enabled_eventEPS0_j@Base 1.1
 _ZN8Accounts7Manager7Private18on_account_createdEPS0_j@Base 1.1
 _ZN8Accounts7Manager7Private18on_account_deletedEPS0_j@Base 1.1
 _ZN8Accounts7Manager7Private18on_account_updatedEPS0_j@Base 1.1
 _ZN8Accounts7Manager7Private4initEPS0_P10_AgManager@Base 1.1
 _ZN8Accounts7Manager7timeoutEv@Base 1.1
 _ZN8Accounts7ManagerC1EP7QObject@Base 1.1
 _ZN8Accounts7ManagerC1ERK7QStringP7QObject@Base 1.1
 _ZN8Accounts7ManagerC2EP7QObject@Base 1.1
 _ZN8Accounts7ManagerC2ERK7QStringP7QObject@Base 1.1
 _ZN8Accounts7ManagerD0Ev@Base 1.1
 _ZN8Accounts7ManagerD1Ev@Base 1.1
 _ZN8Accounts7ManagerD2Ev@Base 1.1
 _ZN8Accounts7ServiceC1EP10_AgService@Base 1.1
 _ZN8Accounts7ServiceC2EP10_AgService@Base 1.1
 _ZN8Accounts7ServiceD1Ev@Base 1.1
 _ZN8Accounts7ServiceD2Ev@Base 1.1
 _ZN8Accounts8AuthDataC1EP11_AgAuthData@Base 1.1
 _ZN8Accounts8AuthDataC1ERKS0_@Base 1.1
 _ZN8Accounts8AuthDataC2EP11_AgAuthData@Base 1.1
 _ZN8Accounts8AuthDataC2ERKS0_@Base 1.1
 _ZN8Accounts8AuthDataD0Ev@Base 1.1
 _ZN8Accounts8AuthDataD1Ev@Base 1.1
 _ZN8Accounts8AuthDataD2Ev@Base 1.1
 _ZN8Accounts8ProviderC1EP11_AgProvider@Base 1.1
 _ZN8Accounts8ProviderC2EP11_AgProvider@Base 1.1
 _ZN8Accounts8ProviderD1Ev@Base 1.1
 _ZN8Accounts8ProviderD2Ev@Base 1.1
 _ZNK8Accounts11ServiceType11displayNameEv@Base 1.1
 _ZNK8Accounts11ServiceType11domDocumentEv@Base 1.1
 _ZNK8Accounts11ServiceType4nameEv@Base 1.1
 _ZNK8Accounts11ServiceType8iconNameEv@Base 1.1
 _ZNK8Accounts11ServiceType9trCatalogEv@Base 1.1
 _ZNK8Accounts14AccountService10metaObjectEv@Base 1.1
 _ZNK8Accounts14AccountService11childGroupsEv@Base 1.1
 _ZNK8Accounts14AccountService13changedFieldsEv@Base 1.1
 _ZNK8Accounts14AccountService5groupEv@Base 1.1
 _ZNK8Accounts14AccountService5valueEPKcPNS_13SettingSourceE@Base 1.1
 _ZNK8Accounts14AccountService5valueERK7QStringPNS_13SettingSourceE@Base 1.1
 _ZNK8Accounts14AccountService7accountEv@Base 1.1
 _ZNK8Accounts14AccountService7allKeysEv@Base 1.1
 _ZNK8Accounts14AccountService7enabledEv@Base 1.1
 _ZNK8Accounts14AccountService7serviceEv@Base 1.1
 _ZNK8Accounts14AccountService8authDataEv@Base 1.1
 _ZNK8Accounts14AccountService8containsERK7QString@Base 1.1
 _ZNK8Accounts14AccountService9childKeysEv@Base 1.1
 _ZNK8Accounts5Watch10metaObjectEv@Base 1.1
 _ZNK8Accounts7Account10isWritableEv@Base 1.1
 _ZNK8Accounts7Account10metaObjectEv@Base 1.1
 _ZNK8Accounts7Account10valueAsIntERK7QStringiPNS_13SettingSourceE@Base 1.1
 _ZNK8Accounts7Account11childGroupsEv@Base 1.1
 _ZNK8Accounts7Account11displayNameEv@Base 1.1
 _ZNK8Accounts7Account11valueAsBoolERK7QStringbPNS_13SettingSourceE@Base 1.1
 _ZNK8Accounts7Account12providerNameEv@Base 1.1
 _ZNK8Accounts7Account13valueAsStringERK7QStringS1_PNS_13SettingSourceE@Base 1.1
 _ZNK8Accounts7Account13valueAsUInt64ERK7QStringyPNS_13SettingSourceE@Base 1.1
 _ZNK8Accounts7Account15enabledServicesEv@Base 1.1
 _ZNK8Accounts7Account15selectedServiceEv@Base 1.1
 _ZNK8Accounts7Account15supportsServiceERK7QString@Base 1.1
 _ZNK8Accounts7Account2idEv@Base 1.1
 _ZNK8Accounts7Account5groupEv@Base 1.1
 _ZNK8Accounts7Account5valueERK7QStringR8QVariant@Base 1.1
 _ZNK8Accounts7Account7allKeysEv@Base 1.1
 _ZNK8Accounts7Account7enabledEv@Base 1.1
 _ZNK8Accounts7Account7managerEv@Base 1.1
 _ZNK8Accounts7Account8containsERK7QString@Base 1.1
 _ZNK8Accounts7Account8servicesERK7QString@Base 1.1
 _ZNK8Accounts7Account9childKeysEv@Base 1.1
 _ZNK8Accounts7Manager10metaObjectEv@Base 1.1
 _ZNK8Accounts7Manager11accountListERK7QString@Base 1.1
 _ZNK8Accounts7Manager11serviceListERK7QString@Base 1.1
 _ZNK8Accounts7Manager11serviceTypeERK7QString@Base 1.1
 _ZNK8Accounts7Manager11serviceTypeEv@Base 1.1
 _ZNK8Accounts7Manager12providerListEv@Base 1.1
 _ZNK8Accounts7Manager14abortOnTimeoutEv@Base 1.1
 _ZNK8Accounts7Manager15serviceInstanceEP10_AgService@Base 1.1
 _ZNK8Accounts7Manager16providerInstanceEP11_AgProvider@Base 1.1
 _ZNK8Accounts7Manager18accountListEnabledERK7QString@Base 1.1
 _ZNK8Accounts7Manager7accountERKj@Base 1.1
 _ZNK8Accounts7Manager7serviceERK7QString@Base 1.1
 _ZNK8Accounts7Manager8providerERK7QString@Base 1.1
 _ZNK8Accounts7Manager9lastErrorEv@Base 1.1
 _ZNK8Accounts7Service11displayNameEv@Base 1.1
 _ZNK8Accounts7Service11domDocumentEv@Base 1.1
 _ZNK8Accounts7Service11serviceTypeEv@Base 1.1
 _ZNK8Accounts7Service15xmlStreamReaderEv@Base 1.1
 _ZNK8Accounts7Service4nameEv@Base 1.1
 _ZNK8Accounts7Service7serviceEv@Base 1.1
 _ZNK8Accounts7Service8iconNameEv@Base 1.1
 _ZNK8Accounts7Service8providerEv@Base 1.1
 _ZNK8Accounts7Service9trCatalogEv@Base 1.1
 _ZNK8Accounts8AuthData10parametersEv@Base 1.1
 _ZNK8Accounts8AuthData13credentialsIdEv@Base 1.1
 _ZNK8Accounts8AuthData6methodEv@Base 1.1
 _ZNK8Accounts8AuthData9mechanismEv@Base 1.1
 _ZNK8Accounts8Provider11displayNameEv@Base 1.1
 _ZNK8Accounts8Provider11domDocumentEv@Base 1.1
 _ZNK8Accounts8Provider4nameEv@Base 1.1
 _ZNK8Accounts8Provider8iconNameEv@Base 1.1
 _ZNK8Accounts8Provider8providerEv@Base 1.1
 _ZNK8Accounts8Provider9trCatalogEv@Base 1.1
 _ZTIN8Accounts14AccountServiceE@Base 1.1
 _ZTIN8Accounts5ErrorE@Base 1.1
 _ZTIN8Accounts5WatchE@Base 1.1
 _ZTIN8Accounts7AccountE@Base 1.1
 _ZTIN8Accounts7ManagerE@Base 1.1
 _ZTIN8Accounts8AuthDataE@Base 1.1
 _ZTSN8Accounts14AccountServiceE@Base 1.1
 _ZTSN8Accounts5ErrorE@Base 1.1
 _ZTSN8Accounts5WatchE@Base 1.1
 _ZTSN8Accounts7AccountE@Base 1.1
 _ZTSN8Accounts7ManagerE@Base 1.1
 _ZTSN8Accounts8AuthDataE@Base 1.1
 _ZTVN8Accounts14AccountServiceE@Base 1.1
 _ZTVN8Accounts5ErrorE@Base 1.1
 _ZTVN8Accounts5WatchE@Base 1.1
 _ZTVN8Accounts7AccountE@Base 1.1
 _ZTVN8Accounts7ManagerE@Base 1.1
 _ZTVN8Accounts8AuthDataE@Base 1.1
